; Function Attrs: mustprogress uwtable
define internal fastcc noundef nonnull ptr @_ZN7rocksdbL17LoadPropertiesSetB5cxx11Ev() unnamed_addr #5 {
  %1 = tail call noalias noundef nonnull dereferenceable(56) ptr @_Znwm(i64 noundef 56) #21
  %2 = getelementptr inbounds nuw i8, ptr %1, i64 32
  tail call void @llvm.memset.p0.i64(ptr noundef nonnull align 16 dereferenceable(16) %2, i8 0, i64 16, i1 false)
  %3 = getelementptr inbounds nuw i8, ptr %1, i64 48
  store ptr %3, ptr %1, align 8, !tbaa !10
  %4 = getelementptr inbounds nuw i8, ptr %1, i64 8
  store i64 1, ptr %4, align 8, !tbaa !19
  %5 = getelementptr inbounds nuw i8, ptr %1, i64 16
  %6 = getelementptr inbounds nuw i8, ptr %1, i64 32
  tail call void @llvm.memset.p0.i64(ptr noundef nonnull align 8 dereferenceable(16) %5, i8 0, i64 16, i1 false)
  store float 1.000000e+00, ptr %6, align 8, !tbaa !20
  %7 = getelementptr inbounds nuw i8, ptr %1, i64 40
  tail call void @llvm.memset.p0.i64(ptr noundef nonnull align 8 dereferenceable(16) %7, i8 0, i64 16, i1 false)
  tail call fastcc void @_ZN7rocksdbL11AddPropertyEPSt13unordered_mapINSt7__cxx1112basic_stringIcSt11char_traitsIcESaIcEEES6_St4hashIS6_ESt8equal_toIS6_ESaISt4pairIKS6_S6_EEERSC_(ptr noundef %1, ptr noundef nonnull align 8 dereferenceable(32) @_ZL21rocksdb_build_git_shaB5cxx11)
  tail call fastcc void @_ZN7rocksdbL11AddPropertyEPSt13unordered_mapINSt7__cxx1112basic_stringIcSt11char_traitsIcESaIcEEES6_St4hashIS6_ESt8equal_toIS6_ESaISt4pairIKS6_S6_EEERSC_(ptr noundef %1, ptr noundef nonnull align 8 dereferenceable(32) @_ZL21rocksdb_build_git_tagB5cxx11)
  tail call fastcc void @_ZN7rocksdbL11AddPropertyEPSt13unordered_mapINSt7__cxx1112basic_stringIcSt11char_traitsIcESaIcEEES6_St4hashIS6_ESt8equal_toIS6_ESaISt4pairIKS6_S6_EEERSC_(ptr noundef %1, ptr noundef nonnull align 8 dereferenceable(32) @_ZL18rocksdb_build_dateB5cxx11)
  ret ptr %1
}